target datalayout = "e-m:e-p270:32:32-p271:32:32-p272:64:64-i64:64-i128:128-f80:128-n8:16:32:64-S128"
target triple = "x86_64-pc-linux-gnu"

%"struct.nanogui::Array" = type { [2 x i32] }
%"class.nanogui::RenderPass" = type <{ %"class.nanogui::Object.base", [4 x i8], %"class.std::vector.0", i8, [7 x i8], %"class.std::vector.5", float, i8, [3 x i8], %"struct.nanogui::Array", %"struct.nanogui::Array", %"struct.nanogui::Array", i32, i8, [3 x i8], i32, [4 x i8], %"class.nanogui::ref", i8, [3 x i8], i32, [4 x i32], [4 x i32], i8, i8, i8, i8, i8, [3 x i8] }>
%"class.nanogui::Object.base" = type <{ ptr, %"struct.std::atomic" }>
%"struct.std::atomic" = type { %"struct.std::__atomic_base" }
%"struct.std::__atomic_base" = type { i32 }
%"class.std::vector.0" = type { %"struct.std::_Vector_base.1" }
%"struct.std::_Vector_base.1" = type { %"struct.std::_Vector_base<nanogui::ref<nanogui::Object>, std::allocator<nanogui::ref<nanogui::Object>>>::_Vector_impl" }
%"struct.std::_Vector_base<nanogui::ref<nanogui::Object>, std::allocator<nanogui::ref<nanogui::Object>>>::_Vector_impl" = type { %"struct.std::_Vector_base<nanogui::ref<nanogui::Object>, std::allocator<nanogui::ref<nanogui::Object>>>::_Vector_impl_data" }
%"struct.std::_Vector_base<nanogui::ref<nanogui::Object>, std::allocator<nanogui::ref<nanogui::Object>>>::_Vector_impl_data" = type { ptr, ptr, ptr }
%"class.std::vector.5" = type { %"struct.std::_Vector_base.6" }
%"struct.std::_Vector_base.6" = type { %"struct.std::_Vector_base<nanogui::Color, std::allocator<nanogui::Color>>::_Vector_impl" }
%"struct.std::_Vector_base<nanogui::Color, std::allocator<nanogui::Color>>::_Vector_impl" = type { %"struct.std::_Vector_base<nanogui::Color, std::allocator<nanogui::Color>>::_Vector_impl_data" }
%"struct.std::_Vector_base<nanogui::Color, std::allocator<nanogui::Color>>::_Vector_impl_data" = type { ptr, ptr, ptr }
%"class.nanogui::ref" = type { ptr }

@_ZTISt13runtime_error = external constant ptr
@.str.11 = private unnamed_addr constant [44 x i8] c"Shader::set_cull_mode(): invalid cull mode!\00", align 1

; Function Attrs: mustprogress uwtable
define hidden void @_ZN7nanogui10RenderPass13set_cull_modeENS0_8CullModeE(ptr noundef nonnull align 8 dereferenceable(173) %0, i32 noundef %1) #0 align 2 personality ptr @__gxx_personality_v0 {
  %3 = alloca ptr, align 8
  %4 = alloca i32, align 4
  %5 = alloca ptr, align 8
  %6 = alloca i32, align 4
  store ptr %0, ptr %3, align 8
  store i32 %1, ptr %4, align 4
  %7 = load ptr, ptr %3, align 8
  %8 = load i32, ptr %4, align 4
  %9 = getelementptr inbounds %"class.nanogui::RenderPass", ptr %7, i32 0, i32 15
  store i32 %8, ptr %9, align 8
  %10 = getelementptr inbounds %"class.nanogui::RenderPass", ptr %7, i32 0, i32 18
  %11 = load i8, ptr %10, align 8
  %12 = trunc i8 %11 to i1
  br i1 %12, label %13, label %35

13:                                               ; preds = %2
  %14 = load i32, ptr %4, align 4
  %15 = icmp eq i32 %14, 0
  br i1 %15, label %16, label %17

16:                                               ; preds = %13
  call void @glDisable(i32 noundef 2884)
  br label %34

17:                                               ; preds = %13
  call void @glEnable(i32 noundef 2884)
  %18 = load i32, ptr %4, align 4
  %19 = icmp eq i32 %18, 1
  br i1 %19, label %20, label %21

20:                                               ; preds = %17
  call void @glCullFace(i32 noundef 1028)
  br label %33

21:                                               ; preds = %17
  %22 = load i32, ptr %4, align 4
  %23 = icmp eq i32 %22, 2
  br i1 %23, label %24, label %25

24:                                               ; preds = %21
  call void @glCullFace(i32 noundef 1029)
  br label %32

25:                                               ; preds = %21
  %26 = call ptr @__cxa_allocate_exception(i64 16) #12
  invoke void @_ZNSt13runtime_errorC1EPKc(ptr noundef nonnull align 8 dereferenceable(16) %26, ptr noundef @.str.11)
          to label %27 unwind label %28

27:                                               ; preds = %25
  call void @__cxa_throw(ptr %26, ptr @_ZTISt13runtime_error, ptr @_ZNSt13runtime_errorD1Ev) #13
  unreachable

28:                                               ; preds = %25
  %29 = landingpad { ptr, i32 }
          cleanup
  %30 = extractvalue { ptr, i32 } %29, 0
  store ptr %30, ptr %5, align 8
  %31 = extractvalue { ptr, i32 } %29, 1
  store i32 %31, ptr %6, align 4
  call void @__cxa_free_exception(ptr %26) #12
  br label %36

32:                                               ; preds = %24
  br label %33

33:                                               ; preds = %32, %20
  br label %34

34:                                               ; preds = %33, %16
  br label %35

35:                                               ; preds = %34, %2
  ret void

36:                                               ; preds = %28
  %37 = load ptr, ptr %5, align 8
  %38 = load i32, ptr %6, align 4
  %39 = insertvalue { ptr, i32 } poison, ptr %37, 0
  %40 = insertvalue { ptr, i32 } %39, i32 %38, 1
  resume { ptr, i32 } %40
}