; Function Attrs: mustprogress uwtable
define hidden void @_ZN7nanogui10RenderPass13set_cull_modeENS0_8CullModeE(ptr nocapture noundef nonnull align 8 dereferenceable(173) %0, i32 noundef %1) local_unnamed_addr #5 align 2 personality ptr @__gxx_personality_v0 {
  %3 = getelementptr inbounds i8, ptr %0, i64 112
  store i32 %1, ptr %3, align 8
  %4 = getelementptr inbounds i8, ptr %0, i64 128
  %5 = load i8, ptr %4, align 8
  %6 = and i8 %5, 1
  %.not = icmp eq i8 %6, 0
  br i1 %.not, label %18, label %7

7:                                                ; preds = %2
  %8 = icmp eq i32 %1, 0
  br i1 %8, label %9, label %10

9:                                                ; preds = %7
  tail call void @glDisable(i32 noundef 2884)
  br label %18

10:                                               ; preds = %7
  tail call void @glEnable(i32 noundef 2884)
  switch i32 %1, label %13 [
    i32 1, label %11
    i32 2, label %12
  ]

11:                                               ; preds = %10
  tail call void @glCullFace(i32 noundef 1028)
  br label %18

12:                                               ; preds = %10
  tail call void @glCullFace(i32 noundef 1029)
  br label %18

13:                                               ; preds = %10
  %14 = tail call ptr @__cxa_allocate_exception(i64 16) #18
  invoke void @_ZNSt13runtime_errorC1EPKc(ptr noundef nonnull align 8 dereferenceable(16) %14, ptr noundef nonnull @.str.11)
          to label %15 unwind label %16

15:                                               ; preds = %13
  tail call void @__cxa_throw(ptr nonnull %14, ptr nonnull @_ZTISt13runtime_error, ptr nonnull @_ZNSt13runtime_errorD1Ev) #16
  unreachable

16:                                               ; preds = %13
  %17 = landingpad { ptr, i32 }
          cleanup
  tail call void @__cxa_free_exception(ptr %14) #18
  resume { ptr, i32 } %17

18:                                               ; preds = %9, %12, %11, %2
  ret void
}